; Function Attrs: nounwind sspstrong uwtable
define internal i64 @last_paren_match_getter(i64 %0, ptr readnone captures(none) %1) #2 {
  %3 = tail call i64 @rb_backref_get() #29
  %4 = icmp eq i64 %3, 4
  br i1 %4, label %rb_reg_match_last.exit, label %5

5:                                                ; preds = %2
  %6 = inttoptr i64 %3 to ptr
  %7 = getelementptr inbounds nuw i8, ptr %6, i64 24
  %8 = load i64, ptr %7, align 8, !tbaa !31
  %.not.i.i.i = icmp eq i64 %8, 0
  br i1 %.not.i.i.i, label %9, label %match_check.exit.i.i

9:                                                ; preds = %5
  %10 = load i64, ptr @rb_eTypeError, align 8, !tbaa !18
  tail call void (i64, ptr, ...) @rb_raise(i64 noundef %10, ptr noundef nonnull @.str.76) #30
  unreachable

match_check.exit.i.i:                             ; preds = %5
  %11 = getelementptr i8, ptr %6, i64 40
  %12 = load ptr, ptr %11, align 8, !tbaa !92
  %13 = load i64, ptr %12, align 8, !tbaa !18
  %14 = icmp eq i64 %13, -1
  br i1 %14, label %rb_reg_match_last.exit, label %15

15:                                               ; preds = %match_check.exit.i.i
  %16 = getelementptr i8, ptr %6, i64 36
  %17 = load i32, ptr %16, align 4, !tbaa !40
  br label %18

18:                                               ; preds = %18, %15
  %.010.in.i.i = phi i32 [ %17, %15 ], [ %.010.i.i, %18 ]
  %.010.i.i = add i32 %.010.in.i.i, -1
  %19 = sext i32 %.010.i.i to i64
  %20 = getelementptr i64, ptr %12, i64 %19
  %21 = load i64, ptr %20, align 8, !tbaa !18
  %22 = icmp eq i64 %21, -1
  %23 = icmp sgt i32 %.010.i.i, 0
  %24 = and i1 %22, %23
  br i1 %24, label %18, label %match_last_index.exit.i, !llvm.loop !95

match_last_index.exit.i:                          ; preds = %18
  %25 = icmp slt i32 %.010.i.i, 1
  br i1 %25, label %rb_reg_match_last.exit, label %26

26:                                               ; preds = %match_last_index.exit.i
  %27 = getelementptr inbounds nuw i8, ptr %6, i64 16
  %28 = load i64, ptr %27, align 8, !tbaa !94
  %29 = zext nneg i32 %.010.i.i to i64
  %30 = getelementptr i8, ptr %6, i64 48
  %31 = load ptr, ptr %30, align 8, !tbaa !93
  %32 = getelementptr i64, ptr %31, i64 %29
  %33 = load i64, ptr %32, align 8, !tbaa !18
  %34 = sub i64 %33, %21
  %35 = tail call i64 @rb_str_subseq(i64 noundef %28, i64 noundef %21, i64 noundef %34) #29
  br label %rb_reg_match_last.exit

rb_reg_match_last.exit:                           ; preds = %2, %match_check.exit.i.i, %match_last_index.exit.i, %26
  %.0.i = phi i64 [ %35, %26 ], [ 4, %match_last_index.exit.i ], [ 4, %2 ], [ 4, %match_check.exit.i.i ]
  ret i64 %.0.i
}